; Function Attrs: mustprogress nounwind uwtable
define dso_local void @_ZN4llvm17PredicateExpander21expandCheckImmOperandERNS_11raw_ostreamEiiNS_9StringRefE(ptr nocapture noundef nonnull readonly align 8 dereferenceable(24) %0, ptr noundef nonnull align 8 dereferenceable(48) %1, i32 noundef %2, i32 noundef %3, ptr %4, i64 %5) local_unnamed_addr #0 align 2 {
  %7 = icmp eq i64 %5, 0
  br i1 %7, label %_ZN4llvm11raw_ostreamlsEPKc.exit, label %8

8:                                                ; preds = %6
  %9 = getelementptr inbounds nuw i8, ptr %1, i64 24
  %10 = load ptr, ptr %9, align 8
  %11 = getelementptr inbounds nuw i8, ptr %1, i64 32
  %12 = load ptr, ptr %11, align 8
  %13 = ptrtoint ptr %10 to i64
  %14 = ptrtoint ptr %12 to i64
  %15 = sub i64 %13, %14
  %16 = icmp ugt i64 %5, %15
  br i1 %16, label %17, label %19

17:                                               ; preds = %8
  %18 = tail call noundef nonnull align 8 dereferenceable(48) ptr @_ZN4llvm11raw_ostream5writeEPKcm(ptr noundef nonnull align 8 dereferenceable(48) %1, ptr noundef %4, i64 noundef %5) #10
  %.phi.trans.insert = getelementptr inbounds nuw i8, ptr %18, i64 32
  %.pre = load ptr, ptr %.phi.trans.insert, align 8
  br label %_ZN4llvm11raw_ostreamlsENS_9StringRefE.exit

19:                                               ; preds = %8
  tail call void @llvm.memcpy.p0.p0.i64(ptr align 1 %12, ptr align 1 %4, i64 %5, i1 false)
  %20 = load ptr, ptr %11, align 8
  %21 = getelementptr inbounds i8, ptr %20, i64 %5
  store ptr %21, ptr %11, align 8
  br label %_ZN4llvm11raw_ostreamlsENS_9StringRefE.exit

_ZN4llvm11raw_ostreamlsENS_9StringRefE.exit:      ; preds = %17, %19
  %22 = phi ptr [ %.pre, %17 ], [ %21, %19 ]
  %.0.i = phi ptr [ %18, %17 ], [ %1, %19 ]
  %23 = getelementptr inbounds nuw i8, ptr %.0.i, i64 24
  %24 = load ptr, ptr %23, align 8
  %25 = icmp eq ptr %24, %22
  br i1 %25, label %26, label %28

26:                                               ; preds = %_ZN4llvm11raw_ostreamlsENS_9StringRefE.exit
  %27 = tail call noundef nonnull align 8 dereferenceable(48) ptr @_ZN4llvm11raw_ostream5writeEPKcm(ptr noundef nonnull align 8 dereferenceable(48) %.0.i, ptr noundef nonnull @.str.2, i64 noundef 1) #10
  br label %_ZN4llvm11raw_ostreamlsEPKc.exit

28:                                               ; preds = %_ZN4llvm11raw_ostreamlsENS_9StringRefE.exit
  %29 = getelementptr inbounds nuw i8, ptr %.0.i, i64 32
  store i8 40, ptr %22, align 1
  %30 = load ptr, ptr %29, align 8
  %31 = getelementptr inbounds i8, ptr %30, i64 1
  store ptr %31, ptr %29, align 8
  br label %_ZN4llvm11raw_ostreamlsEPKc.exit

_ZN4llvm11raw_ostreamlsEPKc.exit:                 ; preds = %28, %26, %6
  %32 = getelementptr inbounds nuw i8, ptr %1, i64 24
  %33 = load ptr, ptr %32, align 8
  %34 = getelementptr inbounds nuw i8, ptr %1, i64 32
  %35 = load ptr, ptr %34, align 8
  %36 = ptrtoint ptr %33 to i64
  %37 = ptrtoint ptr %35 to i64
  %38 = sub i64 %36, %37
  %39 = icmp ult i64 %38, 2
  br i1 %39, label %40, label %42

40:                                               ; preds = %_ZN4llvm11raw_ostreamlsEPKc.exit
  %41 = tail call noundef nonnull align 8 dereferenceable(48) ptr @_ZN4llvm11raw_ostream5writeEPKcm(ptr noundef nonnull align 8 dereferenceable(48) %1, ptr noundef nonnull @.str.3, i64 noundef 2) #10
  %.phi.trans.insert26 = getelementptr inbounds nuw i8, ptr %41, i64 32
  %.pre27 = load ptr, ptr %.phi.trans.insert26, align 8
  br label %_ZN4llvm11raw_ostreamlsEPKc.exit8

42:                                               ; preds = %_ZN4llvm11raw_ostreamlsEPKc.exit
  store i16 18765, ptr %35, align 1
  %43 = load ptr, ptr %34, align 8
  %44 = getelementptr inbounds i8, ptr %43, i64 2
  store ptr %44, ptr %34, align 8
  br label %_ZN4llvm11raw_ostreamlsEPKc.exit8

_ZN4llvm11raw_ostreamlsEPKc.exit8:                ; preds = %40, %42
  %45 = phi ptr [ %.pre27, %40 ], [ %44, %42 ]
  %.0.i.i7 = phi ptr [ %41, %40 ], [ %1, %42 ]
  %46 = load i8, ptr %0, align 8
  %47 = trunc i8 %46 to i1
  %48 = select i1 %47, ptr @.str.4, ptr @.str.5
  %49 = select i1 %47, i64 1, i64 2
  %50 = getelementptr inbounds nuw i8, ptr %.0.i.i7, i64 24
  %51 = load ptr, ptr %50, align 8
  %52 = ptrtoint ptr %51 to i64
  %53 = ptrtoint ptr %45 to i64
  %54 = sub i64 %52, %53
  %55 = icmp ugt i64 %49, %54
  br i1 %55, label %56, label %58

56:                                               ; preds = %_ZN4llvm11raw_ostreamlsEPKc.exit8
  %57 = tail call noundef nonnull align 8 dereferenceable(48) ptr @_ZN4llvm11raw_ostream5writeEPKcm(ptr noundef nonnull align 8 dereferenceable(48) %.0.i.i7, ptr noundef nonnull %48, i64 noundef %49) #10
  %.phi.trans.insert28 = getelementptr inbounds nuw i8, ptr %57, i64 32
  %.pre29 = load ptr, ptr %.phi.trans.insert28, align 8
  br label %_ZN4llvm11raw_ostreamlsEPKc.exit11

58:                                               ; preds = %_ZN4llvm11raw_ostreamlsEPKc.exit8
  %59 = getelementptr inbounds nuw i8, ptr %.0.i.i7, i64 32
  tail call void @llvm.memcpy.p0.p0.i64(ptr noundef nonnull align 1 dereferenceable(1) %45, ptr noundef nonnull align 1 dereferenceable(1) %48, i64 %49, i1 false)
  %60 = load ptr, ptr %59, align 8
  %61 = getelementptr inbounds i8, ptr %60, i64 %49
  store ptr %61, ptr %59, align 8
  br label %_ZN4llvm11raw_ostreamlsEPKc.exit11

_ZN4llvm11raw_ostreamlsEPKc.exit11:               ; preds = %56, %58
  %62 = phi ptr [ %.pre29, %56 ], [ %61, %58 ]
  %.0.i.i10 = phi ptr [ %57, %56 ], [ %.0.i.i7, %58 ]
  %63 = getelementptr inbounds nuw i8, ptr %.0.i.i10, i64 24
  %64 = load ptr, ptr %63, align 8
  %65 = ptrtoint ptr %64 to i64
  %66 = ptrtoint ptr %62 to i64
  %67 = sub i64 %65, %66
  %68 = icmp ult i64 %67, 11
  br i1 %68, label %69, label %71

69:                                               ; preds = %_ZN4llvm11raw_ostreamlsEPKc.exit11
  %70 = tail call noundef nonnull align 8 dereferenceable(48) ptr @_ZN4llvm11raw_ostream5writeEPKcm(ptr noundef nonnull align 8 dereferenceable(48) %.0.i.i10, ptr noundef nonnull @.str.6, i64 noundef 11) #10
  br label %_ZN4llvm11raw_ostreamlsEPKc.exit14

71:                                               ; preds = %_ZN4llvm11raw_ostreamlsEPKc.exit11
  %72 = getelementptr inbounds nuw i8, ptr %.0.i.i10, i64 32
  tail call void @llvm.memcpy.p0.p0.i64(ptr noundef nonnull align 1 dereferenceable(11) %62, ptr noundef nonnull align 1 dereferenceable(11) @.str.6, i64 11, i1 false)
  %73 = load ptr, ptr %72, align 8
  %74 = getelementptr inbounds i8, ptr %73, i64 11
  store ptr %74, ptr %72, align 8
  br label %_ZN4llvm11raw_ostreamlsEPKc.exit14

_ZN4llvm11raw_ostreamlsEPKc.exit14:               ; preds = %69, %71
  %.0.i.i13 = phi ptr [ %70, %69 ], [ %.0.i.i10, %71 ]
  %75 = sext i32 %2 to i64
  %76 = tail call noundef nonnull align 8 dereferenceable(48) ptr @_ZN4llvm11raw_ostreamlsEl(ptr noundef nonnull align 8 dereferenceable(48) %.0.i.i13, i64 noundef %75) #10
  %77 = getelementptr inbounds nuw i8, ptr %76, i64 24
  %78 = load ptr, ptr %77, align 8
  %79 = getelementptr inbounds nuw i8, ptr %76, i64 32
  %80 = load ptr, ptr %79, align 8
  %81 = ptrtoint ptr %78 to i64
  %82 = ptrtoint ptr %80 to i64
  %83 = sub i64 %81, %82
  %84 = icmp ult i64 %83, 10
  br i1 %84, label %85, label %87

85:                                               ; preds = %_ZN4llvm11raw_ostreamlsEPKc.exit14
  %86 = tail call noundef nonnull align 8 dereferenceable(48) ptr @_ZN4llvm11raw_ostream5writeEPKcm(ptr noundef nonnull align 8 dereferenceable(48) %76, ptr noundef nonnull @.str.7, i64 noundef 10) #10
  br label %_ZN4llvm11raw_ostreamlsEPKc.exit17

87:                                               ; preds = %_ZN4llvm11raw_ostreamlsEPKc.exit14
  tail call void @llvm.memcpy.p0.p0.i64(ptr noundef nonnull align 1 dereferenceable(10) %80, ptr noundef nonnull align 1 dereferenceable(10) @.str.7, i64 10, i1 false)
  %88 = load ptr, ptr %79, align 8
  %89 = getelementptr inbounds i8, ptr %88, i64 10
  store ptr %89, ptr %79, align 8
  br label %_ZN4llvm11raw_ostreamlsEPKc.exit17

_ZN4llvm11raw_ostreamlsEPKc.exit17:               ; preds = %85, %87
  %.pre31 = load ptr, ptr %34, align 8
  br i1 %7, label %_ZN4llvm11raw_ostreamlsEPKc.exit20, label %90

90:                                               ; preds = %_ZN4llvm11raw_ostreamlsEPKc.exit17
  %91 = load ptr, ptr %32, align 8
  %92 = icmp eq ptr %91, %.pre31
  br i1 %92, label %93, label %95

93:                                               ; preds = %90
  %94 = tail call noundef nonnull align 8 dereferenceable(48) ptr @_ZN4llvm11raw_ostream5writeEPKcm(ptr noundef nonnull align 8 dereferenceable(48) %1, ptr noundef nonnull @.str.8, i64 noundef 1) #10
  %.pre30 = load ptr, ptr %34, align 8
  br label %_ZN4llvm11raw_ostreamlsEPKc.exit20

95:                                               ; preds = %90
  store i8 41, ptr %.pre31, align 1
  %96 = load ptr, ptr %34, align 8
  %97 = getelementptr inbounds i8, ptr %96, i64 1
  store ptr %97, ptr %34, align 8
  br label %_ZN4llvm11raw_ostreamlsEPKc.exit20

_ZN4llvm11raw_ostreamlsEPKc.exit20:               ; preds = %95, %93, %_ZN4llvm11raw_ostreamlsEPKc.exit17
  %98 = phi ptr [ %97, %95 ], [ %.pre30, %93 ], [ %.pre31, %_ZN4llvm11raw_ostreamlsEPKc.exit17 ]
  %99 = getelementptr inbounds nuw i8, ptr %0, i64 1
  %100 = load i8, ptr %99, align 1
  %101 = trunc i8 %100 to i1
  %.str.9..str.10 = select i1 %101, ptr @.str.9, ptr @.str.10
  %102 = load ptr, ptr %32, align 8
  %103 = ptrtoint ptr %102 to i64
  %104 = ptrtoint ptr %98 to i64
  %105 = sub i64 %103, %104
  %106 = icmp ult i64 %105, 4
  br i1 %106, label %107, label %109

107:                                              ; preds = %_ZN4llvm11raw_ostreamlsEPKc.exit20
  %108 = tail call noundef nonnull align 8 dereferenceable(48) ptr @_ZN4llvm11raw_ostream5writeEPKcm(ptr noundef nonnull align 8 dereferenceable(48) %1, ptr noundef nonnull %.str.9..str.10, i64 noundef 4) #10
  br label %_ZN4llvm11raw_ostreamlsEPKc.exit23

109:                                              ; preds = %_ZN4llvm11raw_ostreamlsEPKc.exit20
  %110 = load i32, ptr %.str.9..str.10, align 1
  store i32 %110, ptr %98, align 1
  %111 = load ptr, ptr %34, align 8
  %112 = getelementptr inbounds i8, ptr %111, i64 4
  store ptr %112, ptr %34, align 8
  br label %_ZN4llvm11raw_ostreamlsEPKc.exit23

_ZN4llvm11raw_ostreamlsEPKc.exit23:               ; preds = %107, %109
  %.0.i.i22 = phi ptr [ %108, %107 ], [ %1, %109 ]
  %113 = sext i32 %3 to i64
  %114 = tail call noundef nonnull align 8 dereferenceable(48) ptr @_ZN4llvm11raw_ostreamlsEl(ptr noundef nonnull align 8 dereferenceable(48) %.0.i.i22, i64 noundef %113) #10
  ret void
}